target datalayout = "e-m:e-p270:32:32-p271:32:32-p272:64:64-i64:64-i128:128-f80:128-n8:16:32:64-S128"
target triple = "x86_64-pc-linux-gnu"

@mi_out_default = internal global ptr null, align 8
@mi_out_arg = internal global ptr null, align 8
@out_len = internal global i64 0, align 8
@out_buf = internal global [16385 x i8] zeroinitializer, align 16

; Function Attrs: nounwind uwtable
define internal void @mi_out_buf_flush(ptr noundef %0, i1 noundef zeroext %1, ptr noundef %2) #0 {
  %4 = alloca ptr, align 8
  %5 = alloca i8, align 1
  %6 = alloca ptr, align 8
  %7 = alloca i64, align 8
  %8 = alloca i64, align 8
  %9 = alloca i64, align 8
  store ptr %0, ptr %4, align 8, !tbaa !18
  %10 = zext i1 %1 to i8
  store i8 %10, ptr %5, align 1, !tbaa !21
  store ptr %2, ptr %6, align 8, !tbaa !18
  %11 = load ptr, ptr %4, align 8, !tbaa !18
  %12 = icmp eq ptr %11, null
  br i1 %12, label %13, label %14

13:                                               ; preds = %3
  br label %35

14:                                               ; preds = %3
  call void @llvm.lifetime.start.p0(i64 8, ptr %7) #12
  %15 = load i8, ptr %5, align 1, !tbaa !21, !range !23, !noundef !24
  %16 = trunc i8 %15 to i1
  %17 = select i1 %16, i64 16384, i64 1
  store i64 %17, ptr %8, align 8, !tbaa !7
  %18 = load i64, ptr %8, align 8
  %19 = atomicrmw add ptr @out_len, i64 %18 acq_rel, align 8
  store i64 %19, ptr %9, align 8
  %20 = load i64, ptr %9, align 8, !tbaa !7
  store i64 %20, ptr %7, align 8, !tbaa !7
  %21 = load i64, ptr %7, align 8, !tbaa !7
  %22 = icmp ugt i64 %21, 16384
  br i1 %22, label %23, label %24

23:                                               ; preds = %14
  store i64 16384, ptr %7, align 8, !tbaa !7
  br label %24

24:                                               ; preds = %23, %14
  %25 = load i64, ptr %7, align 8, !tbaa !7
  %26 = getelementptr inbounds nuw [16385 x i8], ptr @out_buf, i64 0, i64 %25
  store i8 0, ptr %26, align 1, !tbaa !26
  %27 = load ptr, ptr %4, align 8, !tbaa !18
  %28 = load ptr, ptr %6, align 8, !tbaa !18
  call void %27(ptr noundef @out_buf, ptr noundef %28) #11
  %29 = load i8, ptr %5, align 1, !tbaa !21, !range !23, !noundef !24
  %30 = trunc i8 %29 to i1
  br i1 %30, label %34, label %31

31:                                               ; preds = %24
  %32 = load i64, ptr %7, align 8, !tbaa !7
  %33 = getelementptr inbounds nuw [16385 x i8], ptr @out_buf, i64 0, i64 %32
  store i8 10, ptr %33, align 1, !tbaa !26
  br label %34

34:                                               ; preds = %31, %24
  call void @llvm.lifetime.end.p0(i64 8, ptr %7) #12
  br label %35

35:                                               ; preds = %34, %13
  ret void
}

; Function Attrs: nounwind uwtable
define hidden void @mi_register_output(ptr noundef %0, ptr noundef %1) #0 {
  %3 = alloca ptr, align 8
  %4 = alloca ptr, align 8
  %5 = alloca ptr, align 8
  store ptr %0, ptr %3, align 8, !tbaa !18
  store ptr %1, ptr %4, align 8, !tbaa !18
  %6 = load ptr, ptr %3, align 8, !tbaa !18
  %7 = icmp eq ptr %6, null
  br i1 %7, label %8, label %9

8:                                                ; preds = %2
  br label %11

9:                                                ; preds = %2
  %10 = load ptr, ptr %3, align 8, !tbaa !18
  br label %11

11:                                               ; preds = %9, %8
  %12 = phi ptr [ @mi_out_stderr, %8 ], [ %10, %9 ]
  store volatile ptr %12, ptr @mi_out_default, align 8, !tbaa !18
  %13 = load ptr, ptr %4, align 8, !tbaa !18
  store ptr %13, ptr %5, align 8, !tbaa !18
  %14 = load i64, ptr %5, align 8
  store atomic i64 %14, ptr @mi_out_arg release, align 8
  %15 = load ptr, ptr %3, align 8, !tbaa !18
  %16 = icmp ne ptr %15, null
  br i1 %16, label %17, label %20

17:                                               ; preds = %11
  %18 = load ptr, ptr %3, align 8, !tbaa !18
  %19 = load ptr, ptr %4, align 8, !tbaa !18
  call void @mi_out_buf_flush(ptr noundef %18, i1 noundef zeroext true, ptr noundef %19) #11
  br label %20

20:                                               ; preds = %17, %11
  ret void
}