; Function Attrs: nounwind uwtable
define hidden void @mi_register_output(ptr noundef %0, ptr noundef %1) local_unnamed_addr #1 {
  %3 = icmp eq ptr %0, null
  %4 = select i1 %3, ptr @mi_out_stderr, ptr %0
  store volatile ptr %4, ptr @mi_out_default, align 8, !tbaa !6
  %5 = ptrtoint ptr %1 to i64
  store atomic i64 %5, ptr @mi_out_arg release, align 8
  br i1 %3, label %8, label %mi_out_buf_flush.exit

mi_out_buf_flush.exit:                            ; preds = %2
  %6 = atomicrmw add ptr @out_len, i64 16384 acq_rel, align 8
  %spec.store.select.i = tail call i64 @llvm.umin.i64(i64 %6, i64 16384)
  %7 = getelementptr inbounds nuw [16385 x i8], ptr @out_buf, i64 0, i64 %spec.store.select.i
  store i8 0, ptr %7, align 1, !tbaa !3
  tail call void %0(ptr noundef nonnull @out_buf, ptr noundef %1) #16
  br label %8

8:                                                ; preds = %mi_out_buf_flush.exit, %2
  ret void
}